target datalayout = "e-m:e-p270:32:32-p271:32:32-p272:64:64-i64:64-i128:128-f80:128-n8:16:32:64-S128"
target triple = "x86_64-unknown-linux-gnu"

%"class.icu_75::LocaleMatcher::Builder" = type { i32, ptr, i32, i32, ptr, i8, i32, i32, ptr, ptr }

; Function Attrs: mustprogress uwtable
define void @_ZN6icu_7513LocaleMatcher7Builder21clearSupportedLocalesEv(ptr noundef nonnull align 8 dereferenceable(64) %this) #1 align 2 {
entry:
  %this.addr = alloca ptr, align 8
  store ptr %this, ptr %this.addr, align 8
  %this1 = load ptr, ptr %this.addr, align 8
  %supportedLocales_ = getelementptr inbounds %"class.icu_75::LocaleMatcher::Builder", ptr %this1, i32 0, i32 1
  %0 = load ptr, ptr %supportedLocales_, align 8
  %cmp = icmp ne ptr %0, null
  br i1 %cmp, label %if.then, label %if.end

if.then:                                          ; preds = %entry
  %supportedLocales_2 = getelementptr inbounds %"class.icu_75::LocaleMatcher::Builder", ptr %this1, i32 0, i32 1
  %1 = load ptr, ptr %supportedLocales_2, align 8
  call void @_ZN6icu_757UVector17removeAllElementsEv(ptr noundef nonnull align 8 dereferenceable(40) %1)
  br label %if.end

if.end:                                           ; preds = %if.then, %entry
  ret void
}