; Function Attrs: mustprogress uwtable
define void @_ZN6icu_7513LocaleMatcher7Builder21clearSupportedLocalesEv(ptr nocapture noundef nonnull readonly align 8 dereferenceable(64) %this) local_unnamed_addr #2 align 2 {
entry:
  %supportedLocales_ = getelementptr inbounds i8, ptr %this, i64 8
  %0 = load ptr, ptr %supportedLocales_, align 8
  %cmp.not = icmp eq ptr %0, null
  br i1 %cmp.not, label %if.end, label %if.then

if.then:                                          ; preds = %entry
  tail call void @_ZN6icu_757UVector17removeAllElementsEv(ptr noundef nonnull align 8 dereferenceable(40) %0)
  br label %if.end

if.end:                                           ; preds = %if.then, %entry
  ret void
}